; Function Attrs: mustprogress nofree norecurse nosync nounwind willreturn memory(argmem: read) uwtable
define noundef i64 @_ZNK6google8protobuf2io26CopyingOutputStreamAdaptor9ByteCountEv(ptr nocapture noundef nonnull readonly align 8 dereferenceable(48) %0) unnamed_addr #6 align 2 {
  %2 = getelementptr inbounds i8, ptr %0, i64 24
  %3 = load i64, ptr %2, align 8
  %4 = getelementptr inbounds i8, ptr %0, i64 44
  %5 = load i32, ptr %4, align 4
  %6 = sext i32 %5 to i64
  %7 = add nsw i64 %3, %6
  ret i64 %7
}